target datalayout = "e-m:e-p270:32:32-p271:32:32-p272:64:64-i64:64-i128:128-f80:128-n8:16:32:64-S128"
target triple = "x86_64-pc-linux-gnu"

@.str.86 = private unnamed_addr constant [49 x i8] c"WINS (Windows Internet Name Service) Replication\00", align 1
@.str.87 = private unnamed_addr constant [17 x i8] c"WINS-Replication\00", align 1
@.str.88 = private unnamed_addr constant [9 x i8] c"winsrepl\00", align 1
@proto_winsrepl = internal global i32 0, align 4
@winsrepl_handle = internal global ptr null, align 8
@.str.89 = private unnamed_addr constant [11 x i8] c"reassemble\00", align 1
@.str.90 = private unnamed_addr constant [68 x i8] c"Reassemble WINS-Replication messages spanning multiple TCP segments\00", align 1
@.str.91 = private unnamed_addr constant [217 x i8] c"Whether the WINS-Replication dissector should reassemble messages spanning multiple TCP segments. To use this option, you must also enable \22Allow subdissectors to reassemble TCP streams\22 in the TCP protocol settings.\00", align 1
@winsrepl_reassemble = internal global i8 1, align 1

; Function Attrs: null_pointer_is_valid sspstrong uwtable
define hidden void @proto_register_winsrepl() #0 {
  %1 = alloca ptr, align 8
  %2 = alloca ptr, align 8
  call void @llvm.lifetime.start.p0(i64 8, ptr %1) #5
  call void @llvm.lifetime.start.p0(i64 8, ptr %2) #5
  %3 = call i32 @proto_register_protocol(ptr noundef @.str.86, ptr noundef @.str.87, ptr noundef @.str.88)
  store i32 %3, ptr @proto_winsrepl, align 4
  call void @proto_register_subtree_array(ptr noundef @proto_register_winsrepl.ett, i32 noundef 11)
  %4 = load i32, ptr @proto_winsrepl, align 4
  call void @proto_register_field_array(i32 noundef %4, ptr noundef @proto_register_winsrepl.hf, i32 noundef 28)
  %5 = load i32, ptr @proto_winsrepl, align 4
  %6 = call ptr @expert_register_protocol(i32 noundef %5)
  store ptr %6, ptr %2, align 8
  %7 = load ptr, ptr %2, align 8
  call void @expert_register_field_array(ptr noundef %7, ptr noundef @proto_register_winsrepl.ei, i32 noundef 1)
  %8 = load i32, ptr @proto_winsrepl, align 4
  %9 = call ptr @register_dissector(ptr noundef @.str.88, ptr noundef @dissect_winsrepl, i32 noundef %8)
  store ptr %9, ptr @winsrepl_handle, align 8
  %10 = load i32, ptr @proto_winsrepl, align 4
  %11 = call ptr @prefs_register_protocol(i32 noundef %10, ptr noundef null)
  store ptr %11, ptr %1, align 8
  %12 = load ptr, ptr %1, align 8
  call void @prefs_register_bool_preference(ptr noundef %12, ptr noundef @.str.89, ptr noundef @.str.90, ptr noundef @.str.91, ptr noundef @winsrepl_reassemble)
  call void @llvm.lifetime.end.p0(i64 8, ptr %2) #5
  call void @llvm.lifetime.end.p0(i64 8, ptr %1) #5
  ret void
}