; Function Attrs: null_pointer_is_valid sspstrong uwtable
define hidden void @proto_register_winsrepl() local_unnamed_addr #0 {
  %1 = tail call i32 @proto_register_protocol(ptr noundef nonnull @.str.86, ptr noundef nonnull @.str.87, ptr noundef nonnull @.str.88)
  store i32 %1, ptr @proto_winsrepl, align 4
  tail call void @proto_register_subtree_array(ptr noundef nonnull @proto_register_winsrepl.ett, i32 noundef 11)
  %2 = load i32, ptr @proto_winsrepl, align 4
  tail call void @proto_register_field_array(i32 noundef %2, ptr noundef nonnull @proto_register_winsrepl.hf, i32 noundef 28)
  %3 = load i32, ptr @proto_winsrepl, align 4
  %4 = tail call ptr @expert_register_protocol(i32 noundef %3)
  tail call void @expert_register_field_array(ptr noundef %4, ptr noundef nonnull @proto_register_winsrepl.ei, i32 noundef 1)
  %5 = load i32, ptr @proto_winsrepl, align 4
  %6 = tail call ptr @register_dissector(ptr noundef nonnull @.str.88, ptr noundef nonnull @dissect_winsrepl, i32 noundef %5)
  store ptr %6, ptr @winsrepl_handle, align 8
  %7 = load i32, ptr @proto_winsrepl, align 4
  %8 = tail call ptr @prefs_register_protocol(i32 noundef %7, ptr noundef null)
  tail call void @prefs_register_bool_preference(ptr noundef %8, ptr noundef nonnull @.str.89, ptr noundef nonnull @.str.90, ptr noundef nonnull @.str.91, ptr noundef nonnull @winsrepl_reassemble)
  ret void
}